target datalayout = "e-m:e-p270:32:32-p271:32:32-p272:64:64-i64:64-i128:128-f80:128-n8:16:32:64-S128"
target triple = "x86_64-pc-linux-gnu"

@.str.12 = private unnamed_addr constant [32 x i8] c"../openssl/test/property_test.c\00", align 1
@.str.70 = private unnamed_addr constant [36 x i8] c"store = ossl_method_store_new(NULL)\00", align 1
@.str.176 = private unnamed_addr constant [4 x i8] c"red\00", align 1
@.str.177 = private unnamed_addr constant [5 x i8] c"blue\00", align 1
@.str.178 = private unnamed_addr constant [39 x i8] c"red = ossl_parse_property(NULL, \22red\22)\00", align 1
@.str.179 = private unnamed_addr constant [41 x i8] c"blue = ossl_parse_property(NULL, \22blue\22)\00", align 1
@.str.180 = private unnamed_addr constant [38 x i8] c"ossl_prop_defn_set(NULL, \22red\22, &red)\00", align 1
@.str.181 = private unnamed_addr constant [40 x i8] c"ossl_prop_defn_set(NULL, \22blue\22, &blue)\00", align 1
@.str.182 = private unnamed_addr constant [32 x i8] c"ossl_prop_defn_get(NULL, \22red\22)\00", align 1
@.str.183 = private unnamed_addr constant [33 x i8] c"ossl_prop_defn_get(NULL, \22blue\22)\00", align 1
@.str.184 = private unnamed_addr constant [42 x i8] c"blue2 = ossl_parse_property(NULL, \22blue\22)\00", align 1
@.str.185 = private unnamed_addr constant [6 x i8] c"blue2\00", align 1
@.str.186 = private unnamed_addr constant [41 x i8] c"ossl_prop_defn_set(NULL, \22blue\22, &blue2)\00", align 1

; Function Attrs: nounwind uwtable
define internal i32 @test_property_defn_cache() #0 {
  %1 = alloca ptr, align 8
  %2 = alloca ptr, align 8
  %3 = alloca ptr, align 8
  %4 = alloca ptr, align 8
  %5 = alloca i32, align 4
  call void @llvm.lifetime.start.p0(i64 8, ptr %1) #6
  call void @llvm.lifetime.start.p0(i64 8, ptr %2) #6
  store ptr null, ptr %2, align 8, !tbaa !13
  call void @llvm.lifetime.start.p0(i64 8, ptr %3) #6
  store ptr null, ptr %3, align 8, !tbaa !13
  call void @llvm.lifetime.start.p0(i64 8, ptr %4) #6
  store ptr null, ptr %4, align 8, !tbaa !13
  call void @llvm.lifetime.start.p0(i64 4, ptr %5) #6
  %6 = call ptr @ossl_method_store_new(ptr noundef null)
  store ptr %6, ptr %1, align 8, !tbaa !4
  %7 = call i32 @test_ptr(ptr noundef @.str.12, i32 noundef 298, ptr noundef @.str.70, ptr noundef %6)
  %8 = icmp ne i32 %7, 0
  br i1 %8, label %9, label %31

9:                                                ; preds = %0
  %10 = call i32 (ptr, ...) @add_property_names(ptr noundef @.str.176, ptr noundef @.str.177, ptr noundef null)
  %11 = icmp ne i32 %10, 0
  br i1 %11, label %12, label %31

12:                                               ; preds = %9
  %13 = call ptr @ossl_parse_property(ptr noundef null, ptr noundef @.str.176)
  store ptr %13, ptr %2, align 8, !tbaa !13
  %14 = call i32 @test_ptr(ptr noundef @.str.12, i32 noundef 300, ptr noundef @.str.178, ptr noundef %13)
  %15 = icmp ne i32 %14, 0
  br i1 %15, label %16, label %31

16:                                               ; preds = %12
  %17 = call ptr @ossl_parse_property(ptr noundef null, ptr noundef @.str.177)
  store ptr %17, ptr %3, align 8, !tbaa !13
  %18 = call i32 @test_ptr(ptr noundef @.str.12, i32 noundef 301, ptr noundef @.str.179, ptr noundef %17)
  %19 = icmp ne i32 %18, 0
  br i1 %19, label %20, label %31

20:                                               ; preds = %16
  %21 = load ptr, ptr %2, align 8, !tbaa !13
  %22 = load ptr, ptr %3, align 8, !tbaa !13
  %23 = call i32 @test_ptr_ne(ptr noundef @.str.12, i32 noundef 302, ptr noundef @.str.176, ptr noundef @.str.177, ptr noundef %21, ptr noundef %22)
  %24 = icmp ne i32 %23, 0
  br i1 %24, label %25, label %31

25:                                               ; preds = %20
  %26 = call i32 @ossl_prop_defn_set(ptr noundef null, ptr noundef @.str.176, ptr noundef %2)
  %27 = icmp ne i32 %26, 0
  %28 = zext i1 %27 to i32
  %29 = call i32 @test_true(ptr noundef @.str.12, i32 noundef 303, ptr noundef @.str.180, i32 noundef %28)
  %30 = icmp ne i32 %29, 0
  br label %31

31:                                               ; preds = %25, %20, %16, %12, %9, %0
  %32 = phi i1 [ false, %20 ], [ false, %16 ], [ false, %12 ], [ false, %9 ], [ false, %0 ], [ %30, %25 ]
  %33 = zext i1 %32 to i32
  store i32 %33, ptr %5, align 4, !tbaa !9
  %34 = load i32, ptr %5, align 4, !tbaa !9
  %35 = icmp ne i32 %34, 0
  br i1 %35, label %39, label %36

36:                                               ; preds = %31
  %37 = load ptr, ptr %2, align 8, !tbaa !13
  call void @ossl_property_free(ptr noundef %37)
  store ptr null, ptr %2, align 8, !tbaa !13
  %38 = load ptr, ptr %3, align 8, !tbaa !13
  call void @ossl_property_free(ptr noundef %38)
  store ptr null, ptr %3, align 8, !tbaa !13
  br label %39

39:                                               ; preds = %36, %31
  %40 = load i32, ptr %5, align 4, !tbaa !9
  %41 = icmp ne i32 %40, 0
  br i1 %41, label %42, label %48

42:                                               ; preds = %39
  %43 = call i32 @ossl_prop_defn_set(ptr noundef null, ptr noundef @.str.177, ptr noundef %3)
  %44 = icmp ne i32 %43, 0
  %45 = zext i1 %44 to i32
  %46 = call i32 @test_true(ptr noundef @.str.12, i32 noundef 312, ptr noundef @.str.181, i32 noundef %45)
  %47 = icmp ne i32 %46, 0
  br label %48

48:                                               ; preds = %42, %39
  %49 = phi i1 [ false, %39 ], [ %47, %42 ]
  %50 = zext i1 %49 to i32
  store i32 %50, ptr %5, align 4, !tbaa !9
  %51 = load i32, ptr %5, align 4, !tbaa !9
  %52 = icmp ne i32 %51, 0
  br i1 %52, label %55, label %53

53:                                               ; preds = %48
  %54 = load ptr, ptr %3, align 8, !tbaa !13
  call void @ossl_property_free(ptr noundef %54)
  store ptr null, ptr %3, align 8, !tbaa !13
  br label %55

55:                                               ; preds = %53, %48
  %56 = load i32, ptr %5, align 4, !tbaa !9
  %57 = icmp ne i32 %56, 0
  br i1 %57, label %58, label %83

58:                                               ; preds = %55
  %59 = call ptr @ossl_prop_defn_get(ptr noundef null, ptr noundef @.str.176)
  %60 = load ptr, ptr %2, align 8, !tbaa !13
  %61 = call i32 @test_ptr_eq(ptr noundef @.str.12, i32 noundef 318, ptr noundef @.str.182, ptr noundef @.str.176, ptr noundef %59, ptr noundef %60)
  %62 = icmp ne i32 %61, 0
  br i1 %62, label %63, label %83

63:                                               ; preds = %58
  %64 = call ptr @ossl_prop_defn_get(ptr noundef null, ptr noundef @.str.177)
  %65 = load ptr, ptr %3, align 8, !tbaa !13
  %66 = call i32 @test_ptr_eq(ptr noundef @.str.12, i32 noundef 319, ptr noundef @.str.183, ptr noundef @.str.177, ptr noundef %64, ptr noundef %65)
  %67 = icmp ne i32 %66, 0
  br i1 %67, label %68, label %83

68:                                               ; preds = %63
  %69 = call ptr @ossl_parse_property(ptr noundef null, ptr noundef @.str.177)
  store ptr %69, ptr %4, align 8, !tbaa !13
  %70 = call i32 @test_ptr(ptr noundef @.str.12, i32 noundef 320, ptr noundef @.str.184, ptr noundef %69)
  %71 = icmp ne i32 %70, 0
  br i1 %71, label %72, label %83

72:                                               ; preds = %68
  %73 = load ptr, ptr %4, align 8, !tbaa !13
  %74 = load ptr, ptr %3, align 8, !tbaa !13
  %75 = call i32 @test_ptr_ne(ptr noundef @.str.12, i32 noundef 321, ptr noundef @.str.185, ptr noundef @.str.177, ptr noundef %73, ptr noundef %74)
  %76 = icmp ne i32 %75, 0
  br i1 %76, label %77, label %83

77:                                               ; preds = %72
  %78 = call i32 @ossl_prop_defn_set(ptr noundef null, ptr noundef @.str.177, ptr noundef %4)
  %79 = icmp ne i32 %78, 0
  %80 = zext i1 %79 to i32
  %81 = call i32 @test_true(ptr noundef @.str.12, i32 noundef 322, ptr noundef @.str.186, i32 noundef %80)
  %82 = icmp ne i32 %81, 0
  br label %83

83:                                               ; preds = %77, %72, %68, %63, %58, %55
  %84 = phi i1 [ false, %72 ], [ false, %68 ], [ false, %63 ], [ false, %58 ], [ false, %55 ], [ %82, %77 ]
  %85 = zext i1 %84 to i32
  store i32 %85, ptr %5, align 4, !tbaa !9
  %86 = load i32, ptr %5, align 4, !tbaa !9
  %87 = icmp ne i32 %86, 0
  br i1 %87, label %90, label %88

88:                                               ; preds = %83
  %89 = load ptr, ptr %4, align 8, !tbaa !13
  call void @ossl_property_free(ptr noundef %89)
  store ptr null, ptr %4, align 8, !tbaa !13
  br label %90

90:                                               ; preds = %88, %83
  %91 = load i32, ptr %5, align 4, !tbaa !9
  %92 = icmp ne i32 %91, 0
  br i1 %92, label %93, label %103

93:                                               ; preds = %90
  %94 = load ptr, ptr %4, align 8, !tbaa !13
  %95 = load ptr, ptr %3, align 8, !tbaa !13
  %96 = call i32 @test_ptr_eq(ptr noundef @.str.12, i32 noundef 328, ptr noundef @.str.185, ptr noundef @.str.177, ptr noundef %94, ptr noundef %95)
  %97 = icmp ne i32 %96, 0
  br i1 %97, label %98, label %103

98:                                               ; preds = %93
  %99 = call ptr @ossl_prop_defn_get(ptr noundef null, ptr noundef @.str.177)
  %100 = load ptr, ptr %3, align 8, !tbaa !13
  %101 = call i32 @test_ptr_eq(ptr noundef @.str.12, i32 noundef 329, ptr noundef @.str.183, ptr noundef @.str.177, ptr noundef %99, ptr noundef %100)
  %102 = icmp ne i32 %101, 0
  br label %103

103:                                              ; preds = %98, %93, %90
  %104 = phi i1 [ false, %93 ], [ false, %90 ], [ %102, %98 ]
  %105 = zext i1 %104 to i32
  store i32 %105, ptr %5, align 4, !tbaa !9
  %106 = load ptr, ptr %1, align 8, !tbaa !4
  call void @ossl_method_store_free(ptr noundef %106)
  %107 = load i32, ptr %5, align 4, !tbaa !9
  call void @llvm.lifetime.end.p0(i64 4, ptr %5) #6
  call void @llvm.lifetime.end.p0(i64 8, ptr %4) #6
  call void @llvm.lifetime.end.p0(i64 8, ptr %3) #6
  call void @llvm.lifetime.end.p0(i64 8, ptr %2) #6
  call void @llvm.lifetime.end.p0(i64 8, ptr %1) #6
  ret i32 %107
}