; Function Attrs: nounwind uwtable
define internal range(i32 0, 2) i32 @test_property_defn_cache() #0 {
  %1 = alloca ptr, align 8
  %2 = alloca ptr, align 8
  %3 = alloca ptr, align 8
  call void @llvm.lifetime.start.p0(i64 8, ptr nonnull %1) #6
  store ptr null, ptr %1, align 8, !tbaa !20
  call void @llvm.lifetime.start.p0(i64 8, ptr nonnull %2) #6
  call void @llvm.lifetime.start.p0(i64 8, ptr nonnull %3) #6
  store ptr null, ptr %3, align 8, !tbaa !20
  %4 = tail call ptr @ossl_method_store_new(ptr noundef null) #6
  %5 = tail call i32 @test_ptr(ptr noundef nonnull @.str.12, i32 noundef 298, ptr noundef nonnull @.str.70, ptr noundef %4) #6
  %.not = icmp eq i32 %5, 0
  br i1 %.not, label %.critedge23, label %6

6:                                                ; preds = %0
  %7 = tail call i32 (ptr, ...) @add_property_names(ptr noundef nonnull @.str.176, ptr noundef nonnull @.str.177, ptr noundef null)
  %.not7 = icmp eq i32 %7, 0
  br i1 %.not7, label %.critedge23, label %8

8:                                                ; preds = %6
  %9 = tail call ptr @ossl_parse_property(ptr noundef null, ptr noundef nonnull @.str.176) #6
  store ptr %9, ptr %1, align 8, !tbaa !20
  %10 = tail call i32 @test_ptr(ptr noundef nonnull @.str.12, i32 noundef 300, ptr noundef nonnull @.str.178, ptr noundef %9) #6
  %.not8 = icmp eq i32 %10, 0
  br i1 %.not8, label %.critedge23, label %11

11:                                               ; preds = %8
  %12 = tail call ptr @ossl_parse_property(ptr noundef null, ptr noundef nonnull @.str.177) #6
  store ptr %12, ptr %2, align 8, !tbaa !20
  %13 = tail call i32 @test_ptr(ptr noundef nonnull @.str.12, i32 noundef 301, ptr noundef nonnull @.str.179, ptr noundef %12) #6
  %.not9 = icmp eq i32 %13, 0
  br i1 %.not9, label %.critedge23, label %14

14:                                               ; preds = %11
  %15 = tail call i32 @test_ptr_ne(ptr noundef nonnull @.str.12, i32 noundef 302, ptr noundef nonnull @.str.176, ptr noundef nonnull @.str.177, ptr noundef %9, ptr noundef %12) #6
  %.not10 = icmp eq i32 %15, 0
  br i1 %.not10, label %.critedge23, label %16

16:                                               ; preds = %14
  %17 = call i32 @ossl_prop_defn_set(ptr noundef null, ptr noundef nonnull @.str.176, ptr noundef nonnull %1) #6
  %18 = icmp ne i32 %17, 0
  %19 = zext i1 %18 to i32
  %20 = call i32 @test_true(ptr noundef nonnull @.str.12, i32 noundef 303, ptr noundef nonnull @.str.180, i32 noundef %19) #6
  %.not26 = icmp eq i32 %20, 0
  br i1 %.not26, label %..critedge23_crit_edge, label %.critedge

..critedge23_crit_edge:                           ; preds = %16
  %.pre = load ptr, ptr %1, align 8, !tbaa !20
  br label %.critedge23

.critedge23:                                      ; preds = %..critedge23_crit_edge, %14, %11, %8, %6, %0
  %21 = phi ptr [ %12, %..critedge23_crit_edge ], [ %12, %14 ], [ %12, %11 ], [ null, %8 ], [ null, %6 ], [ null, %0 ]
  %22 = phi ptr [ %.pre, %..critedge23_crit_edge ], [ %9, %14 ], [ %9, %11 ], [ %9, %8 ], [ null, %6 ], [ null, %0 ]
  call void @ossl_property_free(ptr noundef %22) #6
  store ptr null, ptr %1, align 8, !tbaa !20
  call void @ossl_property_free(ptr noundef %21) #6
  store ptr null, ptr %2, align 8, !tbaa !20
  br label %27

.critedge:                                        ; preds = %16
  %23 = call i32 @ossl_prop_defn_set(ptr noundef null, ptr noundef nonnull @.str.177, ptr noundef nonnull %2) #6
  %24 = icmp ne i32 %23, 0
  %25 = zext i1 %24 to i32
  %26 = call i32 @test_true(ptr noundef nonnull @.str.12, i32 noundef 312, ptr noundef nonnull @.str.181, i32 noundef %25) #6
  %.not27 = icmp eq i32 %26, 0
  br i1 %.not27, label %.critedge._crit_edge, label %.critedge17

.critedge._crit_edge:                             ; preds = %.critedge
  %.pre29 = load ptr, ptr %2, align 8, !tbaa !20
  br label %27

27:                                               ; preds = %.critedge._crit_edge, %.critedge23
  %28 = phi ptr [ %.pre29, %.critedge._crit_edge ], [ null, %.critedge23 ]
  call void @ossl_property_free(ptr noundef %28) #6
  store ptr null, ptr %2, align 8, !tbaa !20
  br label %.critedge25

.critedge17:                                      ; preds = %.critedge
  %29 = call ptr @ossl_prop_defn_get(ptr noundef null, ptr noundef nonnull @.str.176) #6
  %30 = load ptr, ptr %1, align 8, !tbaa !20
  %31 = call i32 @test_ptr_eq(ptr noundef nonnull @.str.12, i32 noundef 318, ptr noundef nonnull @.str.182, ptr noundef nonnull @.str.176, ptr noundef %29, ptr noundef %30) #6
  %.not11 = icmp eq i32 %31, 0
  br i1 %.not11, label %.critedge25, label %32

32:                                               ; preds = %.critedge17
  %33 = call ptr @ossl_prop_defn_get(ptr noundef null, ptr noundef nonnull @.str.177) #6
  %34 = load ptr, ptr %2, align 8, !tbaa !20
  %35 = call i32 @test_ptr_eq(ptr noundef nonnull @.str.12, i32 noundef 319, ptr noundef nonnull @.str.183, ptr noundef nonnull @.str.177, ptr noundef %33, ptr noundef %34) #6
  %.not12 = icmp eq i32 %35, 0
  br i1 %.not12, label %.critedge25, label %36

36:                                               ; preds = %32
  %37 = call ptr @ossl_parse_property(ptr noundef null, ptr noundef nonnull @.str.177) #6
  store ptr %37, ptr %3, align 8, !tbaa !20
  %38 = call i32 @test_ptr(ptr noundef nonnull @.str.12, i32 noundef 320, ptr noundef nonnull @.str.184, ptr noundef %37) #6
  %.not13 = icmp eq i32 %38, 0
  br i1 %.not13, label %.critedge25, label %39

39:                                               ; preds = %36
  %40 = load ptr, ptr %2, align 8, !tbaa !20
  %41 = call i32 @test_ptr_ne(ptr noundef nonnull @.str.12, i32 noundef 321, ptr noundef nonnull @.str.185, ptr noundef nonnull @.str.177, ptr noundef %37, ptr noundef %40) #6
  %.not14 = icmp eq i32 %41, 0
  br i1 %.not14, label %.critedge25, label %42

42:                                               ; preds = %39
  %43 = call i32 @ossl_prop_defn_set(ptr noundef null, ptr noundef nonnull @.str.177, ptr noundef nonnull %3) #6
  %44 = icmp ne i32 %43, 0
  %45 = zext i1 %44 to i32
  %46 = call i32 @test_true(ptr noundef nonnull @.str.12, i32 noundef 322, ptr noundef nonnull @.str.186, i32 noundef %45) #6
  %.not28 = icmp eq i32 %46, 0
  %.pre30 = load ptr, ptr %3, align 8, !tbaa !20
  br i1 %.not28, label %.critedge25, label %.critedge19

.critedge25:                                      ; preds = %39, %36, %32, %.critedge17, %27, %42
  %47 = phi ptr [ %37, %39 ], [ %37, %36 ], [ null, %32 ], [ null, %.critedge17 ], [ null, %27 ], [ %.pre30, %42 ]
  call void @ossl_property_free(ptr noundef %47) #6
  store ptr null, ptr %3, align 8, !tbaa !20
  br label %56

.critedge19:                                      ; preds = %42
  %48 = load ptr, ptr %2, align 8, !tbaa !20
  %49 = call i32 @test_ptr_eq(ptr noundef nonnull @.str.12, i32 noundef 328, ptr noundef nonnull @.str.185, ptr noundef nonnull @.str.177, ptr noundef %.pre30, ptr noundef %48) #6
  %.not15 = icmp eq i32 %49, 0
  br i1 %.not15, label %56, label %50

50:                                               ; preds = %.critedge19
  %51 = call ptr @ossl_prop_defn_get(ptr noundef null, ptr noundef nonnull @.str.177) #6
  %52 = load ptr, ptr %2, align 8, !tbaa !20
  %53 = call i32 @test_ptr_eq(ptr noundef nonnull @.str.12, i32 noundef 329, ptr noundef nonnull @.str.183, ptr noundef nonnull @.str.177, ptr noundef %51, ptr noundef %52) #6
  %54 = icmp ne i32 %53, 0
  %55 = zext i1 %54 to i32
  br label %56

56:                                               ; preds = %.critedge25, %50, %.critedge19
  %57 = phi i32 [ 0, %.critedge19 ], [ 0, %.critedge25 ], [ %55, %50 ]
  call void @ossl_method_store_free(ptr noundef %4) #6
  call void @llvm.lifetime.end.p0(i64 8, ptr nonnull %3) #6
  call void @llvm.lifetime.end.p0(i64 8, ptr nonnull %2) #6
  call void @llvm.lifetime.end.p0(i64 8, ptr nonnull %1) #6
  ret i32 %57
}